; Function Attrs: nounwind uwtable
define internal fastcc range(i32 -1, 1) i32 @obj2ast_boolop(ptr noundef nonnull readonly captures(none) %0, ptr noundef %1, ptr noundef nonnull writeonly captures(none) %2) unnamed_addr #0 {
  %4 = getelementptr inbounds nuw i8, ptr %0, i64 40
  %5 = load ptr, ptr %4, align 8, !tbaa !217
  %6 = tail call i32 @PyObject_IsInstance(ptr noundef %1, ptr noundef %5) #8
  switch i32 %6, label %7 [
    i32 -1, label %16
    i32 0, label %8
  ]

7:                                                ; preds = %3
  store i32 1, ptr %2, align 4, !tbaa !402
  br label %16

8:                                                ; preds = %3
  %9 = getelementptr inbounds nuw i8, ptr %0, i64 832
  %10 = load ptr, ptr %9, align 8, !tbaa !218
  %11 = tail call i32 @PyObject_IsInstance(ptr noundef %1, ptr noundef %10) #8
  switch i32 %11, label %12 [
    i32 -1, label %16
    i32 0, label %13
  ]

12:                                               ; preds = %8
  store i32 2, ptr %2, align 4, !tbaa !402
  br label %16

13:                                               ; preds = %8
  %14 = load ptr, ptr @PyExc_TypeError, align 8, !tbaa !4
  %15 = tail call ptr (ptr, ptr, ...) @PyErr_Format(ptr noundef %14, ptr noundef nonnull @.str.740, ptr noundef %1) #8
  br label %16

16:                                               ; preds = %8, %3, %13, %12, %7
  %.0 = phi i32 [ 0, %7 ], [ 0, %12 ], [ -1, %13 ], [ %6, %3 ], [ %11, %8 ]
  ret i32 %.0
}